target datalayout = "e-m:e-p270:32:32-p271:32:32-p272:64:64-i64:64-i128:128-f80:128-n8:16:32:64-S128"
target triple = "x86_64-pc-linux-gnu"

%struct.event_base = type { ptr, ptr, %struct.event_changelist, ptr, %struct.evsig_info, i32, i32, i32, i32, i32, i32, i32, i32, i32, i32, i32, i32, ptr, i32, %struct.evcallback_list, ptr, i32, i32, %struct.event_signal_map, %struct.event_signal_map, %struct.min_heap, %struct.timeval, %struct.evutil_monotonic_timer, %struct.timeval, i64, i64, ptr, ptr, i32, ptr, i32, %struct.timeval, i32, i32, i32, [2 x i32], %struct.event, ptr, %struct.evutil_weakrand_state, %struct.once_event_list, [2 x %struct.evwatch_list] }
%struct.event_changelist = type { ptr, i32, i32 }
%struct.evsig_info = type { %struct.event, [2 x i32], i32, i32, [65 x ptr], ptr, i32 }
%struct.evcallback_list = type { ptr, ptr }
%struct.event_signal_map = type { ptr, i32 }
%struct.min_heap = type { ptr, i64, i64 }
%struct.evutil_monotonic_timer = type { i32, %struct.timeval, %struct.timeval }
%struct.timeval = type { i64, i64 }
%struct.event = type { %struct.event_callback, %union.anon.0, i32, i16, i16, ptr, %union.anon.2, %struct.timeval }
%struct.event_callback = type { %struct.anon, i16, i8, i8, %union.anon, ptr }
%struct.anon = type { ptr, ptr }
%union.anon = type { ptr }
%union.anon.0 = type { %struct.anon.1 }
%struct.anon.1 = type { ptr, ptr }
%union.anon.2 = type { %struct.anon.3 }
%struct.anon.3 = type { %struct.anon.4, %struct.timeval }
%struct.anon.4 = type { ptr, ptr }
%struct.evutil_weakrand_state = type { i32 }
%struct.once_event_list = type { ptr }
%struct.evwatch_list = type { ptr, ptr }
%struct.selectop = type { i32, i32, i32, ptr, ptr, ptr, ptr }

@.str.1 = private unnamed_addr constant [7 x i8] c"malloc\00", align 1

; Function Attrs: nounwind uwtable
define internal void @select_free_selectop(ptr noundef %0) #0 {
  %2 = alloca ptr, align 8
  store ptr %0, ptr %2, align 8
  %3 = load ptr, ptr %2, align 8
  %4 = getelementptr inbounds nuw %struct.selectop, ptr %3, i32 0, i32 3
  %5 = load ptr, ptr %4, align 8
  %6 = icmp ne ptr %5, null
  br i1 %6, label %7, label %11

7:                                                ; preds = %1
  %8 = load ptr, ptr %2, align 8
  %9 = getelementptr inbounds nuw %struct.selectop, ptr %8, i32 0, i32 3
  %10 = load ptr, ptr %9, align 8
  call void @event_mm_free_(ptr noundef %10)
  br label %11

11:                                               ; preds = %7, %1
  %12 = load ptr, ptr %2, align 8
  %13 = getelementptr inbounds nuw %struct.selectop, ptr %12, i32 0, i32 4
  %14 = load ptr, ptr %13, align 8
  %15 = icmp ne ptr %14, null
  br i1 %15, label %16, label %20

16:                                               ; preds = %11
  %17 = load ptr, ptr %2, align 8
  %18 = getelementptr inbounds nuw %struct.selectop, ptr %17, i32 0, i32 4
  %19 = load ptr, ptr %18, align 8
  call void @event_mm_free_(ptr noundef %19)
  br label %20

20:                                               ; preds = %16, %11
  %21 = load ptr, ptr %2, align 8
  %22 = getelementptr inbounds nuw %struct.selectop, ptr %21, i32 0, i32 5
  %23 = load ptr, ptr %22, align 8
  %24 = icmp ne ptr %23, null
  br i1 %24, label %25, label %29

25:                                               ; preds = %20
  %26 = load ptr, ptr %2, align 8
  %27 = getelementptr inbounds nuw %struct.selectop, ptr %26, i32 0, i32 5
  %28 = load ptr, ptr %27, align 8
  call void @event_mm_free_(ptr noundef %28)
  br label %29

29:                                               ; preds = %25, %20
  %30 = load ptr, ptr %2, align 8
  %31 = getelementptr inbounds nuw %struct.selectop, ptr %30, i32 0, i32 6
  %32 = load ptr, ptr %31, align 8
  %33 = icmp ne ptr %32, null
  br i1 %33, label %34, label %38

34:                                               ; preds = %29
  %35 = load ptr, ptr %2, align 8
  %36 = getelementptr inbounds nuw %struct.selectop, ptr %35, i32 0, i32 6
  %37 = load ptr, ptr %36, align 8
  call void @event_mm_free_(ptr noundef %37)
  br label %38

38:                                               ; preds = %34, %29
  %39 = load ptr, ptr %2, align 8
  call void @llvm.memset.p0.i64(ptr align 8 %39, i8 0, i64 48, i1 false)
  %40 = load ptr, ptr %2, align 8
  call void @event_mm_free_(ptr noundef %40)
  ret void
}

; Function Attrs: nounwind uwtable
define internal i32 @select_resize(ptr noundef %0, i32 noundef %1) #0 {
  %3 = alloca i32, align 4
  %4 = alloca ptr, align 8
  %5 = alloca i32, align 4
  %6 = alloca ptr, align 8
  %7 = alloca ptr, align 8
  %8 = alloca i32, align 4
  store ptr %0, ptr %4, align 8
  store i32 %1, ptr %5, align 4
  call void @llvm.lifetime.start.p0(i64 8, ptr %6) #6
  store ptr null, ptr %6, align 8
  call void @llvm.lifetime.start.p0(i64 8, ptr %7) #6
  store ptr null, ptr %7, align 8
  %9 = load ptr, ptr %4, align 8
  %10 = getelementptr inbounds nuw %struct.selectop, ptr %9, i32 0, i32 3
  %11 = load ptr, ptr %10, align 8
  %12 = icmp ne ptr %11, null
  br i1 %12, label %13, label %17

13:                                               ; preds = %2
  br label %14

14:                                               ; preds = %13
  br label %15

15:                                               ; preds = %14
  br label %16

16:                                               ; preds = %15
  br label %17

17:                                               ; preds = %16, %2
  %18 = load ptr, ptr %4, align 8
  %19 = getelementptr inbounds nuw %struct.selectop, ptr %18, i32 0, i32 3
  %20 = load ptr, ptr %19, align 8
  %21 = load i32, ptr %5, align 4
  %22 = sext i32 %21 to i64
  %23 = call ptr @event_mm_realloc_(ptr noundef %20, i64 noundef %22)
  store ptr %23, ptr %6, align 8
  %24 = icmp eq ptr %23, null
  br i1 %24, label %25, label %26

25:                                               ; preds = %17
  br label %78

26:                                               ; preds = %17
  %27 = load ptr, ptr %6, align 8
  %28 = load ptr, ptr %4, align 8
  %29 = getelementptr inbounds nuw %struct.selectop, ptr %28, i32 0, i32 3
  store ptr %27, ptr %29, align 8
  %30 = load ptr, ptr %4, align 8
  %31 = getelementptr inbounds nuw %struct.selectop, ptr %30, i32 0, i32 4
  %32 = load ptr, ptr %31, align 8
  %33 = load i32, ptr %5, align 4
  %34 = sext i32 %33 to i64
  %35 = call ptr @event_mm_realloc_(ptr noundef %32, i64 noundef %34)
  store ptr %35, ptr %7, align 8
  %36 = icmp eq ptr %35, null
  br i1 %36, label %37, label %38

37:                                               ; preds = %26
  br label %78

38:                                               ; preds = %26
  %39 = load ptr, ptr %7, align 8
  %40 = load ptr, ptr %4, align 8
  %41 = getelementptr inbounds nuw %struct.selectop, ptr %40, i32 0, i32 4
  store ptr %39, ptr %41, align 8
  %42 = load ptr, ptr %4, align 8
  %43 = getelementptr inbounds nuw %struct.selectop, ptr %42, i32 0, i32 2
  store i32 1, ptr %43, align 8
  %44 = load ptr, ptr %4, align 8
  %45 = getelementptr inbounds nuw %struct.selectop, ptr %44, i32 0, i32 3
  %46 = load ptr, ptr %45, align 8
  %47 = load ptr, ptr %4, align 8
  %48 = getelementptr inbounds nuw %struct.selectop, ptr %47, i32 0, i32 1
  %49 = load i32, ptr %48, align 4
  %50 = sext i32 %49 to i64
  %51 = getelementptr inbounds i8, ptr %46, i64 %50
  %52 = load i32, ptr %5, align 4
  %53 = load ptr, ptr %4, align 8
  %54 = getelementptr inbounds nuw %struct.selectop, ptr %53, i32 0, i32 1
  %55 = load i32, ptr %54, align 4
  %56 = sub nsw i32 %52, %55
  %57 = sext i32 %56 to i64
  call void @llvm.memset.p0.i64(ptr align 1 %51, i8 0, i64 %57, i1 false)
  %58 = load ptr, ptr %4, align 8
  %59 = getelementptr inbounds nuw %struct.selectop, ptr %58, i32 0, i32 4
  %60 = load ptr, ptr %59, align 8
  %61 = load ptr, ptr %4, align 8
  %62 = getelementptr inbounds nuw %struct.selectop, ptr %61, i32 0, i32 1
  %63 = load i32, ptr %62, align 4
  %64 = sext i32 %63 to i64
  %65 = getelementptr inbounds i8, ptr %60, i64 %64
  %66 = load i32, ptr %5, align 4
  %67 = load ptr, ptr %4, align 8
  %68 = getelementptr inbounds nuw %struct.selectop, ptr %67, i32 0, i32 1
  %69 = load i32, ptr %68, align 4
  %70 = sub nsw i32 %66, %69
  %71 = sext i32 %70 to i64
  call void @llvm.memset.p0.i64(ptr align 1 %65, i8 0, i64 %71, i1 false)
  %72 = load i32, ptr %5, align 4
  %73 = load ptr, ptr %4, align 8
  %74 = getelementptr inbounds nuw %struct.selectop, ptr %73, i32 0, i32 1
  store i32 %72, ptr %74, align 4
  br label %75

75:                                               ; preds = %38
  br label %76

76:                                               ; preds = %75
  br label %77

77:                                               ; preds = %76
  store i32 0, ptr %3, align 4
  store i32 1, ptr %8, align 4
  br label %79

78:                                               ; preds = %37, %25
  call void (ptr, ...) @event_warn(ptr noundef @.str.1)
  store i32 -1, ptr %3, align 4
  store i32 1, ptr %8, align 4
  br label %79

79:                                               ; preds = %78, %77
  call void @llvm.lifetime.end.p0(i64 8, ptr %7) #6
  call void @llvm.lifetime.end.p0(i64 8, ptr %6) #6
  %80 = load i32, ptr %3, align 4
  ret i32 %80
}

; Function Attrs: nounwind uwtable
define internal ptr @select_init(ptr noundef %0) #0 {
  %2 = alloca ptr, align 8
  %3 = alloca ptr, align 8
  %4 = alloca ptr, align 8
  %5 = alloca i32, align 4
  store ptr %0, ptr %3, align 8
  call void @llvm.lifetime.start.p0(i64 8, ptr %4) #6
  %6 = call ptr @event_mm_calloc_(i64 noundef 1, i64 noundef 48)
  store ptr %6, ptr %4, align 8
  %7 = icmp ne ptr %6, null
  br i1 %7, label %9, label %8

8:                                                ; preds = %1
  store ptr null, ptr %2, align 8
  store i32 1, ptr %5, align 4
  br label %27

9:                                                ; preds = %1
  %10 = load ptr, ptr %4, align 8
  %11 = call i32 @select_resize(ptr noundef %10, i32 noundef 8)
  %12 = icmp ne i32 %11, 0
  br i1 %12, label %13, label %15

13:                                               ; preds = %9
  %14 = load ptr, ptr %4, align 8
  call void @select_free_selectop(ptr noundef %14)
  store ptr null, ptr %2, align 8
  store i32 1, ptr %5, align 4
  br label %27

15:                                               ; preds = %9
  %16 = load ptr, ptr %3, align 8
  %17 = call i32 @sigfd_init_(ptr noundef %16)
  %18 = icmp slt i32 %17, 0
  br i1 %18, label %19, label %22

19:                                               ; preds = %15
  %20 = load ptr, ptr %3, align 8
  %21 = call i32 @evsig_init_(ptr noundef %20)
  br label %22

22:                                               ; preds = %19, %15
  %23 = load ptr, ptr %3, align 8
  %24 = getelementptr inbounds nuw %struct.event_base, ptr %23, i32 0, i32 43
  %25 = call i32 @evutil_weakrand_seed_(ptr noundef %24, i32 noundef 0)
  %26 = load ptr, ptr %4, align 8
  store ptr %26, ptr %2, align 8
  store i32 1, ptr %5, align 4
  br label %27

27:                                               ; preds = %22, %13, %8
  call void @llvm.lifetime.end.p0(i64 8, ptr %4) #6
  %28 = load ptr, ptr %2, align 8
  ret ptr %28
}