; Function Attrs: nounwind uwtable
define internal ptr @select_init(ptr noundef %0) #0 {
  %2 = tail call ptr @event_mm_calloc_(i64 noundef 1, i64 noundef 48) #7
  %.not = icmp eq ptr %2, null
  br i1 %.not, label %50, label %3

3:                                                ; preds = %1
  %4 = getelementptr inbounds nuw i8, ptr %2, i64 16
  %5 = load ptr, ptr %4, align 8
  %6 = tail call ptr @event_mm_realloc_(ptr noundef %5, i64 noundef 8) #7
  %7 = icmp eq ptr %6, null
  br i1 %7, label %13, label %8

8:                                                ; preds = %3
  store ptr %6, ptr %4, align 8
  %9 = getelementptr inbounds nuw i8, ptr %2, i64 24
  %10 = load ptr, ptr %9, align 8
  %11 = tail call ptr @event_mm_realloc_(ptr noundef %10, i64 noundef 8) #7
  %12 = icmp eq ptr %11, null
  br i1 %12, label %13, label %28

13:                                               ; preds = %8, %3
  tail call void (ptr, ...) @event_warn(ptr noundef nonnull @.str.1) #7
  %14 = load ptr, ptr %4, align 8
  %.not.i = icmp eq ptr %14, null
  br i1 %.not.i, label %16, label %15

15:                                               ; preds = %13
  tail call void @event_mm_free_(ptr noundef nonnull %14) #7
  br label %16

16:                                               ; preds = %15, %13
  %17 = getelementptr inbounds nuw i8, ptr %2, i64 24
  %18 = load ptr, ptr %17, align 8
  %.not13.i = icmp eq ptr %18, null
  br i1 %.not13.i, label %20, label %19

19:                                               ; preds = %16
  tail call void @event_mm_free_(ptr noundef nonnull %18) #7
  br label %20

20:                                               ; preds = %19, %16
  %21 = getelementptr inbounds nuw i8, ptr %2, i64 32
  %22 = load ptr, ptr %21, align 8
  %.not14.i = icmp eq ptr %22, null
  br i1 %.not14.i, label %24, label %23

23:                                               ; preds = %20
  tail call void @event_mm_free_(ptr noundef nonnull %22) #7
  br label %24

24:                                               ; preds = %23, %20
  %25 = getelementptr inbounds nuw i8, ptr %2, i64 40
  %26 = load ptr, ptr %25, align 8
  %.not15.i = icmp eq ptr %26, null
  br i1 %.not15.i, label %select_free_selectop.exit, label %27

27:                                               ; preds = %24
  tail call void @event_mm_free_(ptr noundef nonnull %26) #7
  br label %select_free_selectop.exit

select_free_selectop.exit:                        ; preds = %24, %27
  tail call void @llvm.memset.p0.i64(ptr noundef nonnull align 8 dereferenceable(48) %2, i8 0, i64 48, i1 false)
  tail call void @event_mm_free_(ptr noundef nonnull %2) #7
  br label %50

28:                                               ; preds = %8
  store ptr %11, ptr %9, align 8
  %29 = getelementptr inbounds nuw i8, ptr %2, i64 8
  store i32 1, ptr %29, align 8
  %30 = load ptr, ptr %4, align 8
  %31 = getelementptr inbounds nuw i8, ptr %2, i64 4
  %32 = load i32, ptr %31, align 4
  %33 = sext i32 %32 to i64
  %34 = getelementptr inbounds i8, ptr %30, i64 %33
  %35 = sub nsw i32 8, %32
  %36 = sext i32 %35 to i64
  tail call void @llvm.memset.p0.i64(ptr align 1 %34, i8 0, i64 %36, i1 false)
  %37 = load ptr, ptr %9, align 8
  %38 = load i32, ptr %31, align 4
  %39 = sext i32 %38 to i64
  %40 = getelementptr inbounds i8, ptr %37, i64 %39
  %41 = sub nsw i32 8, %38
  %42 = sext i32 %41 to i64
  tail call void @llvm.memset.p0.i64(ptr align 1 %40, i8 0, i64 %42, i1 false)
  store i32 8, ptr %31, align 4
  %43 = tail call i32 @sigfd_init_(ptr noundef %0) #7
  %44 = icmp slt i32 %43, 0
  br i1 %44, label %45, label %47

45:                                               ; preds = %28
  %46 = tail call i32 @evsig_init_(ptr noundef %0) #7
  br label %47

47:                                               ; preds = %45, %28
  %48 = getelementptr inbounds nuw i8, ptr %0, i64 1160
  %49 = tail call i32 @evutil_weakrand_seed_(ptr noundef nonnull %48, i32 noundef 0) #7
  br label %50

50:                                               ; preds = %1, %47, %select_free_selectop.exit
  %.0 = phi ptr [ null, %select_free_selectop.exit ], [ %2, %47 ], [ null, %1 ]
  ret ptr %.0
}